; Function Attrs: nounwind uwtable
define nonnull ptr @l_Lean_Compiler_LCNF_PullFunDecls_attachFVarDeps(ptr noundef %0, ptr noundef %1, ptr noundef %2, ptr readnone captures(none) %3, ptr readnone captures(none) %4, ptr readnone captures(none) %5, ptr readnone captures(none) %6, ptr noundef %7) local_unnamed_addr #0 {
  %9 = tail call ptr @l_Lean_Compiler_LCNF_PullFunDecls_findFVarDeps(ptr noundef %0, ptr noundef %2, ptr poison, ptr poison, ptr poison, ptr poison, ptr noundef %7)
  %.val = load i32, ptr %9, align 4, !tbaa !4
  %10 = icmp eq i32 %.val, 1
  %11 = getelementptr inbounds nuw i8, ptr %9, i64 8
  %12 = load ptr, ptr %11, align 8, !tbaa !9
  br i1 %10, label %13, label %15

13:                                               ; preds = %8
  %14 = tail call ptr @l_Lean_Compiler_LCNF_PullFunDecls_attach(ptr noundef %12, ptr noundef %1)
  store ptr %14, ptr %11, align 8, !tbaa !9
  br label %49

15:                                               ; preds = %8
  %16 = getelementptr inbounds nuw i8, ptr %9, i64 16
  %17 = load ptr, ptr %16, align 8, !tbaa !9
  %18 = ptrtoint ptr %17 to i64
  %19 = and i64 %18, 1
  %.not = icmp eq i64 %19, 0
  br i1 %.not, label %20, label %lean_inc.exit27

20:                                               ; preds = %15
  %.val.i = load i32, ptr %17, align 4, !tbaa !4
  %21 = icmp sgt i32 %.val.i, 0
  br i1 %21, label %22, label %24, !prof !11

22:                                               ; preds = %20
  %23 = add nuw i32 %.val.i, 1
  store i32 %23, ptr %17, align 4, !tbaa !4
  br label %lean_inc.exit27

24:                                               ; preds = %20
  %.not.i28 = icmp eq i32 %.val.i, 0
  br i1 %.not.i28, label %lean_inc.exit27, label %25

25:                                               ; preds = %24
  tail call void @lean_inc_ref_cold(ptr noundef nonnull %17) #5
  br label %lean_inc.exit27

lean_inc.exit27:                                  ; preds = %25, %24, %22, %15
  %26 = ptrtoint ptr %12 to i64
  %27 = and i64 %26, 1
  %.not32 = icmp eq i64 %27, 0
  br i1 %.not32, label %28, label %lean_inc.exit

28:                                               ; preds = %lean_inc.exit27
  %.val.i29 = load i32, ptr %12, align 4, !tbaa !4
  %29 = icmp sgt i32 %.val.i29, 0
  br i1 %29, label %30, label %32, !prof !11

30:                                               ; preds = %28
  %31 = add nuw i32 %.val.i29, 1
  store i32 %31, ptr %12, align 4, !tbaa !4
  br label %lean_inc.exit

32:                                               ; preds = %28
  %.not.i30 = icmp eq i32 %.val.i29, 0
  br i1 %.not.i30, label %lean_inc.exit, label %33

33:                                               ; preds = %32
  tail call void @lean_inc_ref_cold(ptr noundef nonnull %12) #5
  br label %lean_inc.exit

lean_inc.exit:                                    ; preds = %33, %32, %30, %lean_inc.exit27
  %34 = ptrtoint ptr %9 to i64
  %35 = and i64 %34, 1
  %.not33 = icmp eq i64 %35, 0
  br i1 %.not33, label %36, label %lean_dec.exit

36:                                               ; preds = %lean_inc.exit
  %37 = icmp sgt i32 %.val, 1
  br i1 %37, label %38, label %40, !prof !11

38:                                               ; preds = %36
  %39 = add nsw i32 %.val, -1
  store i32 %39, ptr %9, align 4, !tbaa !4
  br label %lean_dec.exit

40:                                               ; preds = %36
  %.not.i = icmp eq i32 %.val, 0
  br i1 %.not.i, label %lean_dec.exit, label %41

41:                                               ; preds = %40
  tail call void @lean_dec_ref_cold(ptr noundef nonnull %9) #5
  br label %lean_dec.exit

lean_dec.exit:                                    ; preds = %41, %40, %38, %lean_inc.exit
  %42 = tail call ptr @l_Lean_Compiler_LCNF_PullFunDecls_attach(ptr noundef %12, ptr noundef %1)
  tail call void @lean_inc_heartbeat() #5
  %43 = tail call noalias ptr @mi_malloc_small(i64 noundef 24) #5
  %44 = icmp eq ptr %43, null
  br i1 %44, label %45, label %lean_alloc_ctor.exit

45:                                               ; preds = %lean_dec.exit
  tail call void @lean_internal_panic_out_of_memory() #6
  unreachable

lean_alloc_ctor.exit:                             ; preds = %lean_dec.exit
  %46 = getelementptr inbounds nuw i8, ptr %43, i64 4
  store i32 1, ptr %43, align 4, !tbaa !4
  store i32 131096, ptr %46, align 4
  %47 = getelementptr inbounds nuw i8, ptr %43, i64 8
  store ptr %42, ptr %47, align 8, !tbaa !9
  %48 = getelementptr inbounds nuw i8, ptr %43, i64 16
  store ptr %17, ptr %48, align 8, !tbaa !9
  br label %49

49:                                               ; preds = %lean_alloc_ctor.exit, %13
  %.0 = phi ptr [ %9, %13 ], [ %43, %lean_alloc_ctor.exit ]
  ret ptr %.0
}